
LIBRARY      "EZ4Patch.dll"

EXPORTS

??0CRomManager@@QAE@ABV0@@Z
??0CRomManager@@QAE@XZ
??1CRomManager@@UAE@XZ
??4CRomManager@@QAEAAV0@ABV0@@Z
??_7CRomManager@@6B@
?AddROMBomaPatch@CRomManager@@QAEKPBD0E@Z
?ApplyIPSPatch@CRomManager@@QAEKPBD0@Z
?ApplyIPSPatch@CRomManager@@QAEKPBDPAEK@Z
?CRC16@CRomManager@@QAEGPAEI@Z
?EnumGBC2GBAFromFiles@CRomManager@@QAAKPAEPAKPBDZZ
?EnumGBC2GBAFromFiles@CRomManager@@QAEKPAEPAKAAVCStringArray@@@Z
?EnumNES2GBAFromFiles@CRomManager@@QAAKPAEPAKPBDZZ
?EnumNES2GBAFromFiles@CRomManager@@QAEKPAEPAKAAVCStringArray@@@Z
?EnumPCE2GBAFromFiles@CRomManager@@QAAKPAEPAKPBDZZ
?EnumPCE2GBAFromFiles@CRomManager@@QAEKPAEPAKAAVCStringArray@@@Z
?FillComplementCheck@CRomManager@@QAEXPAE@Z
?FindMotif@CRomManager@@AAEPAEPAEK0K@Z
?FindMotif@CRomManager@@QAEPAEPAEK0KK@Z
?FormatNESPreload@CRomManager@@AAEXHKPBD@Z
?FormatPCEPreload@CRomManager@@AAEXHKPBD@Z
?GetNESCharacter@CRomManager@@QAEXHAAH000AAK@Z
?GetPCECharacter@CRomManager@@QAEXHAAH000AAK@Z
?GetSaverSpacial@CRomManager@@QAEHPAE@Z
?GetSaverTypeAndSize@CRomManager@@QAEKPAPAEPAKPAW4SAVERTYPE@@@Z
?HeaderValid@CRomManager@@QAEHPAE@Z
?InflateROM@CRomManager@@QAEXPAPAEPAK@Z
?Modify1MSaverRom@CRomManager@@QAEXPAPAEPAKI@Z
?ModifyNDSHeader@CRomManager@@QAEXPAEKK@Z
?NDSPatch1@CRomManager@@QAEHAAPAEAAK_NGG@Z
?QuerySpecial@CRomManager@@QAEHPAE@Z
?RemoveIntro@CRomManager@@QAEHPAEPAK@Z
?SaverPatch@CRomManager@@QAEKPAPAEPAKW4EZCARTTYPE@@IPAW4SAVERTYPE@@K@Z
?SetNESCharacter@CRomManager@@QAEXHHHHHK@Z
?SetPCECharacter@CRomManager@@QAEXHHHHHK@Z
?SpecialRomPatch@CRomManager@@QAEKPAPAEPAKW4EZCARTTYPE@@K@Z
?fixCRC@CRomManager@@QAEXPAE@Z
